target datalayout = "e-m:e-p270:32:32-p271:32:32-p272:64:64-i64:64-i128:128-f80:128-n8:16:32:64-S128"
target triple = "x86_64-pc-linux-gnu"

%struct.JsonbInState = type { ptr, ptr, i8, ptr }

; Function Attrs: nounwind uwtable
define internal void @array_dim_to_jsonb(ptr noundef %0, i32 noundef %1, i32 noundef %2, ptr noundef %3, ptr noundef %4, ptr noundef %5, ptr noundef %6, i32 noundef %7, i32 noundef %8) #0 {
  %10 = alloca ptr, align 8
  %11 = alloca i32, align 4
  %12 = alloca i32, align 4
  %13 = alloca ptr, align 8
  %14 = alloca ptr, align 8
  %15 = alloca ptr, align 8
  %16 = alloca ptr, align 8
  %17 = alloca i32, align 4
  %18 = alloca i32, align 4
  %19 = alloca i32, align 4
  store ptr %0, ptr %10, align 8
  store i32 %1, ptr %11, align 4
  store i32 %2, ptr %12, align 4
  store ptr %3, ptr %13, align 8
  store ptr %4, ptr %14, align 8
  store ptr %5, ptr %15, align 8
  store ptr %6, ptr %16, align 8
  store i32 %7, ptr %17, align 4
  store i32 %8, ptr %18, align 4
  call void @llvm.lifetime.start.p0(i64 4, ptr %19) #8
  %20 = load ptr, ptr %10, align 8
  %21 = getelementptr inbounds nuw %struct.JsonbInState, ptr %20, i32 0, i32 0
  %22 = call ptr @pushJsonbValue(ptr noundef %21, i32 noundef 4, ptr noundef null)
  %23 = load ptr, ptr %10, align 8
  %24 = getelementptr inbounds nuw %struct.JsonbInState, ptr %23, i32 0, i32 1
  store ptr %22, ptr %24, align 8
  store i32 1, ptr %19, align 4
  br label %25

25:                                               ; preds = %70, %9
  %26 = load i32, ptr %19, align 4
  %27 = load ptr, ptr %13, align 8
  %28 = load i32, ptr %11, align 4
  %29 = sext i32 %28 to i64
  %30 = getelementptr inbounds i32, ptr %27, i64 %29
  %31 = load i32, ptr %30, align 4
  %32 = icmp sle i32 %26, %31
  br i1 %32, label %33, label %73

33:                                               ; preds = %25
  %34 = load i32, ptr %11, align 4
  %35 = add i32 %34, 1
  %36 = load i32, ptr %12, align 4
  %37 = icmp eq i32 %35, %36
  br i1 %37, label %38, label %58

38:                                               ; preds = %33
  %39 = load ptr, ptr %14, align 8
  %40 = load ptr, ptr %16, align 8
  %41 = load i32, ptr %40, align 4
  %42 = sext i32 %41 to i64
  %43 = getelementptr inbounds i64, ptr %39, i64 %42
  %44 = load i64, ptr %43, align 8
  %45 = load ptr, ptr %15, align 8
  %46 = load ptr, ptr %16, align 8
  %47 = load i32, ptr %46, align 4
  %48 = sext i32 %47 to i64
  %49 = getelementptr inbounds i8, ptr %45, i64 %48
  %50 = load i8, ptr %49, align 1, !range !4, !noundef !5
  %51 = trunc i8 %50 to i1
  %52 = load ptr, ptr %10, align 8
  %53 = load i32, ptr %17, align 4
  %54 = load i32, ptr %18, align 4
  call void @datum_to_jsonb_internal(i64 noundef %44, i1 noundef zeroext %51, ptr noundef %52, i32 noundef %53, i32 noundef %54, i1 noundef zeroext false)
  %55 = load ptr, ptr %16, align 8
  %56 = load i32, ptr %55, align 4
  %57 = add i32 %56, 1
  store i32 %57, ptr %55, align 4
  br label %69

58:                                               ; preds = %33
  %59 = load ptr, ptr %10, align 8
  %60 = load i32, ptr %11, align 4
  %61 = add i32 %60, 1
  %62 = load i32, ptr %12, align 4
  %63 = load ptr, ptr %13, align 8
  %64 = load ptr, ptr %14, align 8
  %65 = load ptr, ptr %15, align 8
  %66 = load ptr, ptr %16, align 8
  %67 = load i32, ptr %17, align 4
  %68 = load i32, ptr %18, align 4
  call void @array_dim_to_jsonb(ptr noundef %59, i32 noundef %61, i32 noundef %62, ptr noundef %63, ptr noundef %64, ptr noundef %65, ptr noundef %66, i32 noundef %67, i32 noundef %68)
  br label %69

69:                                               ; preds = %58, %38
  br label %70

70:                                               ; preds = %69
  %71 = load i32, ptr %19, align 4
  %72 = add i32 %71, 1
  store i32 %72, ptr %19, align 4
  br label %25, !llvm.loop !18

73:                                               ; preds = %25
  %74 = load ptr, ptr %10, align 8
  %75 = getelementptr inbounds nuw %struct.JsonbInState, ptr %74, i32 0, i32 0
  %76 = call ptr @pushJsonbValue(ptr noundef %75, i32 noundef 5, ptr noundef null)
  %77 = load ptr, ptr %10, align 8
  %78 = getelementptr inbounds nuw %struct.JsonbInState, ptr %77, i32 0, i32 1
  store ptr %76, ptr %78, align 8
  call void @llvm.lifetime.end.p0(i64 4, ptr %19) #8
  ret void
}