; Function Attrs: nounwind uwtable
define internal fastcc void @array_dim_to_jsonb(ptr noundef nonnull %0, i32 noundef %1, i32 noundef %2, ptr noundef readonly captures(none) %3, ptr noundef readonly captures(none) %4, ptr noundef readonly captures(none) %5, ptr noundef nonnull captures(none) %6, i32 noundef %7, i32 noundef %8) unnamed_addr #0 {
  %10 = tail call ptr @pushJsonbValue(ptr noundef nonnull %0, i32 noundef 4, ptr noundef null) #11
  %11 = getelementptr inbounds nuw i8, ptr %0, i64 8
  store ptr %10, ptr %11, align 8
  %12 = sext i32 %1 to i64
  %13 = getelementptr inbounds i32, ptr %3, i64 %12
  %14 = load i32, ptr %13, align 4
  %.not28 = icmp slt i32 %14, 1
  br i1 %.not28, label %._crit_edge, label %.lr.ph

.lr.ph:                                           ; preds = %9
  %15 = add i32 %1, 1
  %16 = icmp eq i32 %15, %2
  br i1 %16, label %.lr.ph.split.us.preheader, label %.lr.ph.split

.lr.ph.split.us.preheader:                        ; preds = %.lr.ph
  %.pre = load i32, ptr %6, align 4
  br label %.lr.ph.split.us

.lr.ph.split.us:                                  ; preds = %.lr.ph.split.us.preheader, %.lr.ph.split.us
  %17 = phi i32 [ %25, %.lr.ph.split.us ], [ %.pre, %.lr.ph.split.us.preheader ]
  %.029.us = phi i32 [ %26, %.lr.ph.split.us ], [ 1, %.lr.ph.split.us.preheader ]
  %18 = sext i32 %17 to i64
  %19 = getelementptr inbounds i64, ptr %4, i64 %18
  %20 = load i64, ptr %19, align 8
  %21 = getelementptr inbounds i8, ptr %5, i64 %18
  %22 = load i8, ptr %21, align 1, !range !7, !noundef !8
  %23 = trunc nuw i8 %22 to i1
  tail call fastcc void @datum_to_jsonb_internal(i64 noundef %20, i1 noundef zeroext %23, ptr noundef %0, i32 noundef %7, i32 noundef %8, i1 noundef zeroext false)
  %24 = load i32, ptr %6, align 4
  %25 = add i32 %24, 1
  store i32 %25, ptr %6, align 4
  %26 = add i32 %.029.us, 1
  %27 = load i32, ptr %13, align 4
  %.not.us = icmp sgt i32 %26, %27
  br i1 %.not.us, label %._crit_edge, label %.lr.ph.split.us, !llvm.loop !21

.lr.ph.split:                                     ; preds = %.lr.ph, %.lr.ph.split
  %.029 = phi i32 [ %28, %.lr.ph.split ], [ 1, %.lr.ph ]
  tail call fastcc void @array_dim_to_jsonb(ptr noundef %0, i32 noundef %15, i32 noundef %2, ptr noundef nonnull %3, ptr noundef %4, ptr noundef %5, ptr noundef %6, i32 noundef %7, i32 noundef %8)
  %28 = add i32 %.029, 1
  %29 = load i32, ptr %13, align 4
  %.not = icmp sgt i32 %28, %29
  br i1 %.not, label %._crit_edge, label %.lr.ph.split, !llvm.loop !21

._crit_edge:                                      ; preds = %.lr.ph.split, %.lr.ph.split.us, %9
  %30 = tail call ptr @pushJsonbValue(ptr noundef nonnull %0, i32 noundef 5, ptr noundef null) #11
  store ptr %30, ptr %11, align 8
  ret void
}